target datalayout = "e-m:e-p270:32:32-p271:32:32-p272:64:64-i64:64-i128:128-f80:128-n8:16:32:64-S128"
target triple = "x86_64-pc-linux-gnu"

%struct.SDL_AtomicInt = type { i32 }
%struct.SDL_JoystickDriver = type { ptr, ptr, ptr, ptr, ptr, ptr, ptr, ptr, ptr, ptr, ptr, ptr, ptr, ptr, ptr, ptr, ptr, ptr, ptr, ptr, ptr }
%struct.SDL_GUID = type { [16 x i8] }
%struct.SDL_Joystick = type { i32, ptr, ptr, ptr, %struct.SDL_GUID, i16, i64, i8, i8, i32, ptr, i32, ptr, i32, ptr, i32, ptr, i32, ptr, i32, i32, ptr, i16, i16, i64, i64, i16, i16, i64, i64, i8, i8, i8, i64, i8, i32, i32, i32, i8, i32, ptr, i32, ptr, [3 x [3 x float]], i64, ptr, ptr, i32, i32, ptr }

@SDL_joysticks_initialized = internal global i8 0, align 1
@SDL_joystick_lock_pending = internal global %struct.SDL_AtomicInt zeroinitializer, align 4
@SDL_joystick_lock = internal global ptr null, align 8
@SDL_joysticks_locked = internal global i32 0, align 4
@.str.2 = private unnamed_addr constant [26 x i8] c"Parameter '%s' is invalid\00", align 1
@.str.3 = private unnamed_addr constant [9 x i8] c"joystick\00", align 1

; Function Attrs: nounwind uwtable
define hidden void @SDL_UnlockJoysticks_REAL() #0 {
  %1 = alloca i8, align 1
  %2 = alloca ptr, align 8
  call void @llvm.lifetime.start.p0(i64 1, ptr %1) #7
  store i8 0, ptr %1, align 1
  %3 = load i32, ptr @SDL_joysticks_locked, align 4
  %4 = add nsw i32 %3, -1
  store i32 %4, ptr @SDL_joysticks_locked, align 4
  %5 = load i8, ptr @SDL_joysticks_initialized, align 1, !range !3, !noundef !4
  %6 = trunc i8 %5 to i1
  br i1 %6, label %15, label %7

7:                                                ; preds = %0
  %8 = load i32, ptr @SDL_joysticks_locked, align 4
  %9 = icmp ne i32 %8, 0
  br i1 %9, label %14, label %10

10:                                               ; preds = %7
  %11 = call i32 @SDL_GetAtomicInt_REAL(ptr noundef @SDL_joystick_lock_pending)
  %12 = icmp eq i32 %11, 0
  br i1 %12, label %13, label %14

13:                                               ; preds = %10
  store i8 1, ptr %1, align 1
  br label %14

14:                                               ; preds = %13, %10, %7
  br label %15

15:                                               ; preds = %14, %0
  %16 = load i8, ptr %1, align 1, !range !3, !noundef !4
  %17 = trunc i8 %16 to i1
  br i1 %17, label %18, label %24

18:                                               ; preds = %15
  call void @llvm.lifetime.start.p0(i64 8, ptr %2) #7
  %19 = load ptr, ptr @SDL_joystick_lock, align 8
  store ptr %19, ptr %2, align 8
  %20 = load ptr, ptr %2, align 8
  call void @SDL_LockMutex_REAL(ptr noundef %20)
  %21 = load ptr, ptr @SDL_joystick_lock, align 8
  call void @SDL_UnlockMutex_REAL(ptr noundef %21)
  store ptr null, ptr @SDL_joystick_lock, align 8
  %22 = load ptr, ptr %2, align 8
  call void @SDL_UnlockMutex_REAL(ptr noundef %22)
  %23 = load ptr, ptr %2, align 8
  call void @SDL_DestroyMutex_REAL(ptr noundef %23)
  call void @llvm.lifetime.end.p0(i64 8, ptr %2) #7
  br label %26

24:                                               ; preds = %15
  %25 = load ptr, ptr @SDL_joystick_lock, align 8
  call void @SDL_UnlockMutex_REAL(ptr noundef %25)
  br label %26

26:                                               ; preds = %24, %18
  call void @llvm.lifetime.end.p0(i64 1, ptr %1) #7
  ret void
}

; Function Attrs: nounwind uwtable
define hidden void @SDL_LockJoysticks_REAL() #0 {
  %1 = call i32 @SDL_AddAtomicInt_REAL(ptr noundef @SDL_joystick_lock_pending, i32 noundef 1)
  %2 = load ptr, ptr @SDL_joystick_lock, align 8
  call void @SDL_LockMutex_REAL(ptr noundef %2)
  %3 = call i32 @SDL_AddAtomicInt_REAL(ptr noundef @SDL_joystick_lock_pending, i32 noundef -1)
  %4 = load i32, ptr @SDL_joysticks_locked, align 4
  %5 = add nsw i32 %4, 1
  store i32 %5, ptr @SDL_joysticks_locked, align 4
  ret void
}

; Function Attrs: nounwind uwtable
define hidden zeroext i1 @SDL_RumbleJoystickTriggers_REAL(ptr noundef %0, i16 noundef zeroext %1, i16 noundef zeroext %2, i32 noundef %3) #0 {
  %5 = alloca i1, align 1
  %6 = alloca ptr, align 8
  %7 = alloca i16, align 2
  %8 = alloca i16, align 2
  %9 = alloca i32, align 4
  %10 = alloca i8, align 1
  %11 = alloca i32, align 4
  store ptr %0, ptr %6, align 8
  store i16 %1, ptr %7, align 2
  store i16 %2, ptr %8, align 2
  store i32 %3, ptr %9, align 4
  call void @llvm.lifetime.start.p0(i64 1, ptr %10) #7
  call void @SDL_LockJoysticks_REAL()
  %12 = load ptr, ptr %6, align 8
  %13 = call zeroext i1 @SDL_ObjectValid(ptr noundef %12, i32 noundef 4)
  br i1 %13, label %16, label %14

14:                                               ; preds = %4
  %15 = call zeroext i1 (ptr, ...) @SDL_SetError_REAL(ptr noundef @.str.2, ptr noundef @.str.3)
  call void @SDL_UnlockJoysticks_REAL()
  store i1 false, ptr %5, align 1
  store i32 1, ptr %11, align 4
  br label %105

16:                                               ; preds = %4
  %17 = load i16, ptr %7, align 2
  %18 = zext i16 %17 to i32
  %19 = load ptr, ptr %6, align 8
  %20 = getelementptr inbounds nuw %struct.SDL_Joystick, ptr %19, i32 0, i32 26
  %21 = load i16, ptr %20, align 8
  %22 = zext i16 %21 to i32
  %23 = icmp eq i32 %18, %22
  br i1 %23, label %24, label %33

24:                                               ; preds = %16
  %25 = load i16, ptr %8, align 2
  %26 = zext i16 %25 to i32
  %27 = load ptr, ptr %6, align 8
  %28 = getelementptr inbounds nuw %struct.SDL_Joystick, ptr %27, i32 0, i32 27
  %29 = load i16, ptr %28, align 2
  %30 = zext i16 %29 to i32
  %31 = icmp eq i32 %26, %30
  br i1 %31, label %32, label %33

32:                                               ; preds = %24
  store i8 1, ptr %10, align 1
  br label %63

33:                                               ; preds = %24, %16
  %34 = load ptr, ptr %6, align 8
  %35 = getelementptr inbounds nuw %struct.SDL_Joystick, ptr %34, i32 0, i32 45
  %36 = load ptr, ptr %35, align 8
  %37 = getelementptr inbounds nuw %struct.SDL_JoystickDriver, ptr %36, i32 0, i32 13
  %38 = load ptr, ptr %37, align 8
  %39 = load ptr, ptr %6, align 8
  %40 = load i16, ptr %7, align 2
  %41 = load i16, ptr %8, align 2
  %42 = call zeroext i1 %38(ptr noundef %39, i16 noundef zeroext %40, i16 noundef zeroext %41)
  %43 = zext i1 %42 to i8
  store i8 %43, ptr %10, align 1
  %44 = load i8, ptr %10, align 1, !range !3, !noundef !4
  %45 = trunc i8 %44 to i1
  br i1 %45, label %46, label %59

46:                                               ; preds = %33
  %47 = call i64 @SDL_GetTicks_REAL()
  %48 = add i64 %47, 2000
  %49 = load ptr, ptr %6, align 8
  %50 = getelementptr inbounds nuw %struct.SDL_Joystick, ptr %49, i32 0, i32 29
  store i64 %48, ptr %50, align 8
  %51 = load ptr, ptr %6, align 8
  %52 = getelementptr inbounds nuw %struct.SDL_Joystick, ptr %51, i32 0, i32 29
  %53 = load i64, ptr %52, align 8
  %54 = icmp eq i64 %53, 0
  br i1 %54, label %55, label %58

55:                                               ; preds = %46
  %56 = load ptr, ptr %6, align 8
  %57 = getelementptr inbounds nuw %struct.SDL_Joystick, ptr %56, i32 0, i32 29
  store i64 1, ptr %57, align 8
  br label %58

58:                                               ; preds = %55, %46
  br label %62

59:                                               ; preds = %33
  %60 = load ptr, ptr %6, align 8
  %61 = getelementptr inbounds nuw %struct.SDL_Joystick, ptr %60, i32 0, i32 29
  store i64 0, ptr %61, align 8
  br label %62

62:                                               ; preds = %59, %58
  br label %63

63:                                               ; preds = %62, %32
  %64 = load i8, ptr %10, align 1, !range !3, !noundef !4
  %65 = trunc i8 %64 to i1
  br i1 %65, label %66, label %102

66:                                               ; preds = %63
  %67 = load i16, ptr %7, align 2
  %68 = load ptr, ptr %6, align 8
  %69 = getelementptr inbounds nuw %struct.SDL_Joystick, ptr %68, i32 0, i32 26
  store i16 %67, ptr %69, align 8
  %70 = load i16, ptr %8, align 2
  %71 = load ptr, ptr %6, align 8
  %72 = getelementptr inbounds nuw %struct.SDL_Joystick, ptr %71, i32 0, i32 27
  store i16 %70, ptr %72, align 2
  %73 = load i16, ptr %7, align 2
  %74 = zext i16 %73 to i32
  %75 = icmp ne i32 %74, 0
  br i1 %75, label %80, label %76

76:                                               ; preds = %66
  %77 = load i16, ptr %8, align 2
  %78 = zext i16 %77 to i32
  %79 = icmp ne i32 %78, 0
  br i1 %79, label %80, label %96

80:                                               ; preds = %76, %66
  %81 = load i32, ptr %9, align 4
  %82 = icmp ne i32 %81, 0
  br i1 %82, label %83, label %96

83:                                               ; preds = %80
  %84 = call i64 @SDL_GetTicks_REAL()
  %85 = load i32, ptr %9, align 4
  %86 = icmp ult i32 %85, 65535
  br i1 %86, label %87, label %89

87:                                               ; preds = %83
  %88 = load i32, ptr %9, align 4
  br label %90

89:                                               ; preds = %83
  br label %90

90:                                               ; preds = %89, %87
  %91 = phi i32 [ %88, %87 ], [ 65535, %89 ]
  %92 = zext i32 %91 to i64
  %93 = add i64 %84, %92
  %94 = load ptr, ptr %6, align 8
  %95 = getelementptr inbounds nuw %struct.SDL_Joystick, ptr %94, i32 0, i32 28
  store i64 %93, ptr %95, align 8
  br label %101

96:                                               ; preds = %80, %76
  %97 = load ptr, ptr %6, align 8
  %98 = getelementptr inbounds nuw %struct.SDL_Joystick, ptr %97, i32 0, i32 28
  store i64 0, ptr %98, align 8
  %99 = load ptr, ptr %6, align 8
  %100 = getelementptr inbounds nuw %struct.SDL_Joystick, ptr %99, i32 0, i32 29
  store i64 0, ptr %100, align 8
  br label %101

101:                                              ; preds = %96, %90
  br label %102

102:                                              ; preds = %101, %63
  call void @SDL_UnlockJoysticks_REAL()
  %103 = load i8, ptr %10, align 1, !range !3, !noundef !4
  %104 = trunc i8 %103 to i1
  store i1 %104, ptr %5, align 1
  store i32 1, ptr %11, align 4
  br label %105

105:                                              ; preds = %102, %14
  call void @llvm.lifetime.end.p0(i64 1, ptr %10) #7
  %106 = load i1, ptr %5, align 1
  ret i1 %106
}