; Function Attrs: nounwind uwtable
define hidden noundef zeroext i1 @SDL_RumbleJoystickTriggers_REAL(ptr noundef %0, i16 noundef zeroext %1, i16 noundef zeroext %2, i32 noundef %3) local_unnamed_addr #1 {
  %5 = tail call i32 @SDL_AddAtomicInt_REAL(ptr noundef nonnull @SDL_joystick_lock_pending, i32 noundef 1) #13
  %6 = load ptr, ptr @SDL_joystick_lock, align 8
  tail call void @SDL_LockMutex_REAL(ptr noundef %6) #13
  %7 = tail call i32 @SDL_AddAtomicInt_REAL(ptr noundef nonnull @SDL_joystick_lock_pending, i32 noundef -1) #13
  %8 = load i32, ptr @SDL_joysticks_locked, align 4
  %9 = add nsw i32 %8, 1
  store i32 %9, ptr @SDL_joysticks_locked, align 4
  %10 = tail call zeroext i1 @SDL_ObjectValid(ptr noundef %0, i32 noundef 4) #13
  br i1 %10, label %23, label %11

11:                                               ; preds = %4
  %12 = tail call zeroext i1 (ptr, ...) @SDL_SetError_REAL(ptr noundef nonnull @.str.2, ptr noundef nonnull @.str.3) #13
  %13 = load i32, ptr @SDL_joysticks_locked, align 4
  %14 = add nsw i32 %13, -1
  store i32 %14, ptr @SDL_joysticks_locked, align 4
  %.b4.i = load i1, ptr @SDL_joysticks_initialized, align 1
  %15 = icmp ne i32 %14, 0
  %or.cond.i = select i1 %.b4.i, i1 true, i1 %15
  br i1 %or.cond.i, label %.critedge.i, label %16

16:                                               ; preds = %11
  %17 = tail call i32 @SDL_GetAtomicInt_REAL(ptr noundef nonnull @SDL_joystick_lock_pending) #13
  %18 = icmp eq i32 %17, 0
  br i1 %18, label %19, label %.critedge.i

19:                                               ; preds = %16
  %20 = load ptr, ptr @SDL_joystick_lock, align 8
  tail call void @SDL_LockMutex_REAL(ptr noundef %20) #13
  %21 = load ptr, ptr @SDL_joystick_lock, align 8
  tail call void @SDL_UnlockMutex_REAL(ptr noundef %21) #13
  store ptr null, ptr @SDL_joystick_lock, align 8
  tail call void @SDL_UnlockMutex_REAL(ptr noundef %20) #13
  tail call void @SDL_DestroyMutex_REAL(ptr noundef %20) #13
  br label %SDL_UnlockJoysticks_REAL.exit

.critedge.i:                                      ; preds = %16, %11
  %22 = load ptr, ptr @SDL_joystick_lock, align 8
  tail call void @SDL_UnlockMutex_REAL(ptr noundef %22) #13
  br label %SDL_UnlockJoysticks_REAL.exit

23:                                               ; preds = %4
  %24 = getelementptr inbounds nuw i8, ptr %0, i64 184
  %25 = load i16, ptr %24, align 8
  %26 = icmp eq i16 %1, %25
  br i1 %26, label %27, label %31

27:                                               ; preds = %23
  %28 = getelementptr inbounds nuw i8, ptr %0, i64 186
  %29 = load i16, ptr %28, align 2
  %30 = icmp eq i16 %2, %29
  br i1 %30, label %43, label %31

31:                                               ; preds = %27, %23
  %32 = getelementptr inbounds nuw i8, ptr %0, i64 320
  %33 = load ptr, ptr %32, align 8
  %34 = getelementptr inbounds nuw i8, ptr %33, i64 104
  %35 = load ptr, ptr %34, align 8
  %36 = tail call zeroext i1 %35(ptr noundef nonnull %0, i16 noundef zeroext %1, i16 noundef zeroext %2) #13
  br i1 %36, label %37, label %41

37:                                               ; preds = %31
  %38 = tail call i64 @SDL_GetTicks_REAL() #13
  %39 = add i64 %38, 2000
  %40 = getelementptr inbounds nuw i8, ptr %0, i64 200
  %spec.store.select = tail call i64 @llvm.umax.i64(i64 %39, i64 1)
  store i64 %spec.store.select, ptr %40, align 8
  br label %43

41:                                               ; preds = %31
  %42 = getelementptr inbounds nuw i8, ptr %0, i64 200
  store i64 0, ptr %42, align 8
  br label %55

43:                                               ; preds = %27, %37
  store i16 %1, ptr %24, align 8
  %44 = getelementptr inbounds nuw i8, ptr %0, i64 186
  store i16 %2, ptr %44, align 2
  %45 = or i16 %2, %1
  %or.cond = icmp ne i16 %45, 0
  %46 = icmp ne i32 %3, 0
  %or.cond4 = and i1 %or.cond, %46
  br i1 %or.cond4, label %47, label %53

47:                                               ; preds = %43
  %48 = tail call i64 @SDL_GetTicks_REAL() #13
  %49 = tail call i32 @llvm.umin.i32(i32 %3, i32 65535)
  %50 = zext nneg i32 %49 to i64
  %51 = add i64 %48, %50
  %52 = getelementptr inbounds nuw i8, ptr %0, i64 192
  store i64 %51, ptr %52, align 8
  br label %55

53:                                               ; preds = %43
  %54 = getelementptr inbounds nuw i8, ptr %0, i64 192
  tail call void @llvm.memset.p0.i64(ptr noundef nonnull align 8 dereferenceable(16) %54, i8 0, i64 16, i1 false)
  br label %55

55:                                               ; preds = %41, %47, %53
  %.0.shrunk39 = phi i1 [ true, %47 ], [ true, %53 ], [ false, %41 ]
  %56 = load i32, ptr @SDL_joysticks_locked, align 4
  %57 = add nsw i32 %56, -1
  store i32 %57, ptr @SDL_joysticks_locked, align 4
  %.b4.i34 = load i1, ptr @SDL_joysticks_initialized, align 1
  %58 = icmp ne i32 %57, 0
  %or.cond.i35 = select i1 %.b4.i34, i1 true, i1 %58
  br i1 %or.cond.i35, label %.critedge.i36, label %59

59:                                               ; preds = %55
  %60 = tail call i32 @SDL_GetAtomicInt_REAL(ptr noundef nonnull @SDL_joystick_lock_pending) #13
  %61 = icmp eq i32 %60, 0
  br i1 %61, label %62, label %.critedge.i36

62:                                               ; preds = %59
  %63 = load ptr, ptr @SDL_joystick_lock, align 8
  tail call void @SDL_LockMutex_REAL(ptr noundef %63) #13
  %64 = load ptr, ptr @SDL_joystick_lock, align 8
  tail call void @SDL_UnlockMutex_REAL(ptr noundef %64) #13
  store ptr null, ptr @SDL_joystick_lock, align 8
  tail call void @SDL_UnlockMutex_REAL(ptr noundef %63) #13
  tail call void @SDL_DestroyMutex_REAL(ptr noundef %63) #13
  br label %SDL_UnlockJoysticks_REAL.exit

.critedge.i36:                                    ; preds = %59, %55
  %65 = load ptr, ptr @SDL_joystick_lock, align 8
  tail call void @SDL_UnlockMutex_REAL(ptr noundef %65) #13
  br label %SDL_UnlockJoysticks_REAL.exit

SDL_UnlockJoysticks_REAL.exit:                    ; preds = %.critedge.i36, %62, %.critedge.i, %19
  %.032 = phi i1 [ false, %19 ], [ false, %.critedge.i ], [ %.0.shrunk39, %62 ], [ %.0.shrunk39, %.critedge.i36 ]
  ret i1 %.032
}